; Function Attrs: mustprogress uwtable
define dso_local void @_ZN3net19QuicStreamSequencer12MarkConsumedEm(ptr noundef nonnull align 8 dereferenceable(169) %this, i64 noundef %num_bytes_consumed) local_unnamed_addr #0 align 2 personality ptr @__gxx_personality_v0 {
entry:
  %ref.tmp3 = alloca %"class.logging::LogMessage", align 8
  %ref.tmp13 = alloca %"class.std::__cxx11::basic_string", align 8
  %buffered_frames_ = getelementptr inbounds i8, ptr %this, i64 16
  %call = tail call noundef zeroext i1 @_ZN3net25QuicStreamSequencerBuffer12MarkConsumedEm(ptr noundef nonnull align 8 dereferenceable(120) %buffered_frames_, i64 noundef %num_bytes_consumed)
  br i1 %call, label %if.end, label %if.then

if.then:                                          ; preds = %entry
  %call2 = tail call noundef zeroext i1 @_ZN7logging22ShouldCreateLogMessageEi(i32 noundef 2)
  br i1 %call2, label %cond.false, label %cleanup.done25

cond.false:                                       ; preds = %if.then
  call void @_ZN7logging10LogMessageC1EPKcii(ptr noundef nonnull align 8 dereferenceable(404) %ref.tmp3, ptr noundef nonnull @.str.3, i32 noundef 155, i32 noundef 2)
  %stream_.i = getelementptr inbounds i8, ptr %ref.tmp3, i64 8
  %call6 = invoke noundef nonnull align 8 dereferenceable(8) ptr @_ZStlsISt11char_traitsIcEERSt13basic_ostreamIcT_ES5_PKc(ptr noundef nonnull align 8 dereferenceable(8) %stream_.i, ptr noundef nonnull @.str.4)
          to label %invoke.cont5 unwind label %lpad

invoke.cont5:                                     ; preds = %cond.false
  %call8 = invoke noundef nonnull align 8 dereferenceable(8) ptr @_ZStlsISt11char_traitsIcEERSt13basic_ostreamIcT_ES5_PKc(ptr noundef nonnull align 8 dereferenceable(8) %call6, ptr noundef nonnull @.str.5)
          to label %invoke.cont7 unwind label %lpad

invoke.cont7:                                     ; preds = %invoke.cont5
  %call10 = invoke noundef nonnull align 8 dereferenceable(8) ptr @_ZNSolsEm(ptr noundef nonnull align 8 dereferenceable(8) %call8, i64 noundef %num_bytes_consumed)
          to label %invoke.cont9 unwind label %lpad

invoke.cont9:                                     ; preds = %invoke.cont7
  %call12 = invoke noundef nonnull align 8 dereferenceable(8) ptr @_ZStlsISt11char_traitsIcEERSt13basic_ostreamIcT_ES5_PKc(ptr noundef nonnull align 8 dereferenceable(8) %call10, ptr noundef nonnull @.str.6)
          to label %invoke.cont11 unwind label %lpad

invoke.cont11:                                    ; preds = %invoke.cont9
  invoke void @_ZNK3net19QuicStreamSequencer11DebugStringB5cxx11Ev(ptr nonnull sret(%"class.std::__cxx11::basic_string") align 8 %ref.tmp13, ptr noundef nonnull align 8 dereferenceable(169) %this)
          to label %invoke.cont14 unwind label %lpad

invoke.cont14:                                    ; preds = %invoke.cont11
  %call18 = invoke noundef nonnull align 8 dereferenceable(8) ptr @_ZStlsIcSt11char_traitsIcESaIcEERSt13basic_ostreamIT_T0_ES7_RKNSt7__cxx1112basic_stringIS4_S5_T1_EE(ptr noundef nonnull align 8 dereferenceable(8) %call12, ptr noundef nonnull align 8 dereferenceable(32) %ref.tmp13)
          to label %cleanup.action unwind label %lpad16

cleanup.action:                                   ; preds = %invoke.cont14
  call void @_ZNSt7__cxx1112basic_stringIcSt11char_traitsIcESaIcEED1Ev(ptr noundef nonnull align 8 dereferenceable(32) %ref.tmp13) #6
  call void @_ZN7logging10LogMessageD1Ev(ptr noundef nonnull align 8 dereferenceable(404) %ref.tmp3) #6
  br label %cleanup.done25

cleanup.done25:                                   ; preds = %if.then, %cleanup.action
  %stream_ = getelementptr inbounds i8, ptr %this, i64 8
  %0 = load ptr, ptr %stream_, align 8
  %vtable = load ptr, ptr %0, align 8
  %vfn = getelementptr inbounds i8, ptr %vtable, i64 64
  %1 = load ptr, ptr %vfn, align 8
  call void %1(ptr noundef nonnull align 8 dereferenceable(377) %0, i32 noundef 1)
  br label %return

lpad:                                             ; preds = %invoke.cont11, %invoke.cont9, %invoke.cont7, %invoke.cont5, %cond.false
  %2 = landingpad { ptr, i32 }
          cleanup
  br label %cleanup.action27

lpad16:                                           ; preds = %invoke.cont14
  %3 = landingpad { ptr, i32 }
          cleanup
  call void @_ZNSt7__cxx1112basic_stringIcSt11char_traitsIcESaIcEED1Ev(ptr noundef nonnull align 8 dereferenceable(32) %ref.tmp13) #6
  br label %cleanup.action27

cleanup.action27:                                 ; preds = %lpad, %lpad16
  %.pn = phi { ptr, i32 } [ %3, %lpad16 ], [ %2, %lpad ]
  call void @_ZN7logging10LogMessageD1Ev(ptr noundef nonnull align 8 dereferenceable(404) %ref.tmp3) #6
  resume { ptr, i32 } %.pn

if.end:                                           ; preds = %entry
  %stream_29 = getelementptr inbounds i8, ptr %this, i64 8
  %4 = load ptr, ptr %stream_29, align 8
  tail call void @_ZN3net18ReliableQuicStream16AddBytesConsumedEm(ptr noundef nonnull align 8 dereferenceable(377) %4, i64 noundef %num_bytes_consumed)
  br label %return

return:                                           ; preds = %if.end, %cleanup.done25
  ret void
}